target datalayout = "e-m:e-p270:32:32-p271:32:32-p272:64:64-i64:64-i128:128-f80:128-n8:16:32:64-S128"
target triple = "x86_64-pc-linux-gnu"

%struct.curl_trc_feat = type { ptr, i32 }
%struct.Curl_easy = type { i32, i64, i64, ptr, %struct.Curl_llist_node, %struct.Curl_llist_node, i32, i32, %struct.Curl_message, %struct.easy_pollset, %struct.Names, ptr, ptr, ptr, %struct.SingleRequest, %struct.UserDefined, ptr, ptr, %struct.Progress, %struct.UrlState, ptr, %struct.PureInfo, %struct.curl_tlssessioninfo }
%struct.Curl_llist_node = type { ptr, ptr, ptr, ptr }
%struct.Curl_message = type { %struct.Curl_llist_node, %struct.CURLMsg }
%struct.CURLMsg = type { i32, ptr, %union.anon }
%union.anon = type { ptr }
%struct.easy_pollset = type { [5 x i32], i32, [5 x i8] }
%struct.Names = type { ptr, i32 }
%struct.SingleRequest = type <{ i64, i64, i64, i64, %struct.curltime, i32, i32, i32, i32, i64, i32, i32, i32, i32, ptr, ptr, %struct.bufq, i64, i64, ptr, ptr, %union.anon.0, ptr, i8, i32, [3 x i8] }>
%struct.curltime = type { i64, i32 }
%struct.bufq = type { ptr, ptr, ptr, ptr, i64, i64, i64, i32 }
%union.anon.0 = type { ptr }
%struct.UserDefined = type <{ ptr, ptr, ptr, ptr, ptr, ptr, i16, [6 x i8], i64, i64, i64, ptr, ptr, i64, i16, i16, [4 x i8], ptr, ptr, ptr, ptr, ptr, ptr, ptr, ptr, ptr, ptr, ptr, ptr, ptr, ptr, ptr, ptr, ptr, ptr, ptr, ptr, ptr, ptr, ptr, i32, i32, i32, i32, i32, [4 x i8], i64, i64, i64, i64, i64, i64, i64, i64, ptr, ptr, %struct.curl_mimepart, ptr, ptr, i64, i8, i8, i8, [5 x i8], %struct.ssl_config_data, %struct.ssl_config_data, ptr, i16, i8, i8, [4 x i8], %struct.ssl_general_config, i32, i32, i32, [4 x i8], ptr, ptr, i8, [7 x i8], i64, i8, i8, i8, i8, i32, ptr, ptr, ptr, i8, i8, [2 x i8], i32, [63 x ptr], [8 x ptr], i32, i32, i32, [4 x i8], ptr, ptr, ptr, ptr, ptr, i8, [3 x i8], i32, i32, i32, i64, %struct.Curl_data_priority, ptr, ptr, i64, ptr, i64, ptr, ptr, ptr, i8, [3 x i8], i32, i8, i8, i64, [6 x i8] }>
%struct.curl_mimepart = type { ptr, ptr, i32, i32, ptr, ptr, ptr, ptr, ptr, ptr, ptr, ptr, ptr, ptr, ptr, i64, %struct.mime_state, ptr, %struct.mime_encoder_state, i64 }
%struct.mime_state = type { i32, ptr, i64 }
%struct.mime_encoder_state = type { i64, i64, i64, [256 x i8] }
%struct.ssl_config_data = type { %struct.ssl_primary_config, i64, ptr, ptr, ptr, ptr, ptr, ptr, ptr, i16 }
%struct.ssl_primary_config = type { ptr, ptr, ptr, ptr, ptr, ptr, ptr, ptr, ptr, ptr, ptr, ptr, i8, i32, i8, i8 }
%struct.ssl_general_config = type { i64, i32 }
%struct.Curl_data_priority = type { ptr, ptr, i32, i8 }
%struct.Progress = type { i64, %struct.pgrs_dir, %struct.pgrs_dir, i64, i64, i32, i32, i64, i64, i64, i64, i64, i64, i64, i64, i64, %struct.curltime, %struct.curltime, %struct.curltime, %struct.curltime, [6 x i64], [6 x %struct.curltime], i32, i8 }
%struct.pgrs_dir = type { i64, i64, i64, %struct.pgrs_measure }
%struct.pgrs_measure = type { %struct.curltime, i64 }
%struct.UrlState = type { %struct.curltime, i64, i64, %struct.dynbuf, ptr, i64, ptr, i32, i32, i32, ptr, i64, i32, i64, i32, ptr, %struct.digestdata, %struct.digestdata, %struct.auth, %struct.auth, %struct.Curl_async, ptr, %struct.curltime, %struct.Curl_tree, %struct.Curl_llist, [15 x %struct.time_node], ptr, ptr, i64, i64, %struct.Curl_data_priority, ptr, ptr, ptr, %struct.urlpieces, ptr, ptr, ptr, ptr, ptr, i64, %struct.dynbuf, %struct.Curl_llist, [2 x %struct.curl_header], ptr, i32, ptr, ptr, %struct.store_netrc, %struct.dynamically_allocated_data, i8, i8, i8, i8, i32 }
%struct.digestdata = type { ptr, ptr, ptr, ptr, ptr, ptr, i32, i8, i8 }
%struct.auth = type { i64, i64, i64, i8 }
%struct.Curl_async = type { ptr, ptr, ptr, ptr, i32, i32, i8 }
%struct.Curl_tree = type { ptr, ptr, ptr, ptr, %struct.curltime, ptr }
%struct.time_node = type { %struct.Curl_llist_node, %struct.curltime, i32 }
%struct.urlpieces = type { ptr, ptr, ptr, ptr, ptr, ptr, ptr, ptr }
%struct.dynbuf = type { ptr, i64, i64, i64 }
%struct.Curl_llist = type { ptr, ptr, ptr, i64 }
%struct.curl_header = type { ptr, ptr, i64, i64, i32, ptr }
%struct.store_netrc = type { %struct.dynbuf, ptr, i8 }
%struct.dynamically_allocated_data = type { ptr, ptr, ptr, ptr, ptr, ptr, ptr, ptr, ptr, ptr, ptr, ptr, ptr }
%struct.PureInfo = type { i32, i32, i32, i64, i64, i64, i64, i64, ptr, ptr, i64, i32, %struct.ip_quadruple, i32, ptr, i32, %struct.curl_certinfo, i32, i8 }
%struct.ip_quadruple = type { [46 x i8], [46 x i8], i32, i32 }
%struct.curl_certinfo = type { i32, ptr }
%struct.curl_tlssessioninfo = type { i32, ptr }
%struct.__va_list_tag = type { i32, i32, ptr, ptr }

@.str = private unnamed_addr constant [6 x i8] c"[%s] \00", align 1

; Function Attrs: nounwind uwtable
define internal void @trc_infof(ptr noundef %0, ptr noundef %1, ptr noundef %2, ptr noundef %3) #0 {
  %5 = alloca ptr, align 8
  %6 = alloca ptr, align 8
  %7 = alloca ptr, align 8
  %8 = alloca ptr, align 8
  %9 = alloca i32, align 4
  %10 = alloca [2053 x i8], align 16
  store ptr %0, ptr %5, align 8, !tbaa !4
  store ptr %1, ptr %6, align 8, !tbaa !92
  store ptr %2, ptr %7, align 8, !tbaa !11
  store ptr %3, ptr %8, align 8, !tbaa !93
  call void @llvm.lifetime.start.p0(i64 4, ptr %9) #5
  store i32 0, ptr %9, align 4, !tbaa !9
  call void @llvm.lifetime.start.p0(i64 2053, ptr %10) #5
  %11 = load ptr, ptr %6, align 8, !tbaa !92
  %12 = icmp ne ptr %11, null
  br i1 %12, label %13, label %19

13:                                               ; preds = %4
  %14 = getelementptr inbounds [2053 x i8], ptr %10, i64 0, i64 0
  %15 = load ptr, ptr %6, align 8, !tbaa !92
  %16 = getelementptr inbounds nuw %struct.curl_trc_feat, ptr %15, i32 0, i32 0
  %17 = load ptr, ptr %16, align 8, !tbaa !95
  %18 = call i32 (ptr, i64, ptr, ...) @curl_msnprintf(ptr noundef %14, i64 noundef 2049, ptr noundef @.str, ptr noundef %17)
  store i32 %18, ptr %9, align 4, !tbaa !9
  br label %19

19:                                               ; preds = %13, %4
  %20 = getelementptr inbounds [2053 x i8], ptr %10, i64 0, i64 0
  %21 = load i32, ptr %9, align 4, !tbaa !9
  %22 = sext i32 %21 to i64
  %23 = getelementptr inbounds i8, ptr %20, i64 %22
  %24 = load i32, ptr %9, align 4, !tbaa !9
  %25 = sub nsw i32 2049, %24
  %26 = sext i32 %25 to i64
  %27 = load ptr, ptr %7, align 8, !tbaa !11
  %28 = load ptr, ptr %8, align 8, !tbaa !93
  %29 = call i32 @curl_mvsnprintf(ptr noundef %23, i64 noundef %26, ptr noundef %27, ptr noundef %28)
  %30 = load i32, ptr %9, align 4, !tbaa !9
  %31 = add nsw i32 %30, %29
  store i32 %31, ptr %9, align 4, !tbaa !9
  %32 = load i32, ptr %9, align 4, !tbaa !9
  %33 = icmp sge i32 %32, 2048
  br i1 %33, label %34, label %49

34:                                               ; preds = %19
  %35 = load i32, ptr %9, align 4, !tbaa !9
  %36 = add nsw i32 %35, -1
  store i32 %36, ptr %9, align 4, !tbaa !9
  %37 = load i32, ptr %9, align 4, !tbaa !9
  %38 = add nsw i32 %37, 1
  store i32 %38, ptr %9, align 4, !tbaa !9
  %39 = sext i32 %37 to i64
  %40 = getelementptr inbounds [2053 x i8], ptr %10, i64 0, i64 %39
  store i8 46, ptr %40, align 1, !tbaa !88
  %41 = load i32, ptr %9, align 4, !tbaa !9
  %42 = add nsw i32 %41, 1
  store i32 %42, ptr %9, align 4, !tbaa !9
  %43 = sext i32 %41 to i64
  %44 = getelementptr inbounds [2053 x i8], ptr %10, i64 0, i64 %43
  store i8 46, ptr %44, align 1, !tbaa !88
  %45 = load i32, ptr %9, align 4, !tbaa !9
  %46 = add nsw i32 %45, 1
  store i32 %46, ptr %9, align 4, !tbaa !9
  %47 = sext i32 %45 to i64
  %48 = getelementptr inbounds [2053 x i8], ptr %10, i64 0, i64 %47
  store i8 46, ptr %48, align 1, !tbaa !88
  br label %49

49:                                               ; preds = %34, %19
  %50 = load i32, ptr %9, align 4, !tbaa !9
  %51 = add nsw i32 %50, 1
  store i32 %51, ptr %9, align 4, !tbaa !9
  %52 = sext i32 %50 to i64
  %53 = getelementptr inbounds [2053 x i8], ptr %10, i64 0, i64 %52
  store i8 10, ptr %53, align 1, !tbaa !88
  %54 = load i32, ptr %9, align 4, !tbaa !9
  %55 = sext i32 %54 to i64
  %56 = getelementptr inbounds [2053 x i8], ptr %10, i64 0, i64 %55
  store i8 0, ptr %56, align 1, !tbaa !88
  %57 = load ptr, ptr %5, align 8, !tbaa !4
  %58 = getelementptr inbounds [2053 x i8], ptr %10, i64 0, i64 0
  %59 = load i32, ptr %9, align 4, !tbaa !9
  %60 = sext i32 %59 to i64
  call void @Curl_debug(ptr noundef %57, i32 noundef 0, ptr noundef %58, i64 noundef %60)
  call void @llvm.lifetime.end.p0(i64 2053, ptr %10) #5
  call void @llvm.lifetime.end.p0(i64 4, ptr %9) #5
  ret void
}

; Function Attrs: nounwind uwtable
define dso_local void @Curl_infof(ptr noundef %0, ptr noundef %1, ...) #0 {
  %3 = alloca ptr, align 8
  %4 = alloca ptr, align 8
  %5 = alloca [1 x %struct.__va_list_tag], align 16
  store ptr %0, ptr %3, align 8, !tbaa !4
  store ptr %1, ptr %4, align 8, !tbaa !11
  br label %6

6:                                                ; preds = %2
  br label %7

7:                                                ; preds = %6
  %8 = load ptr, ptr %3, align 8, !tbaa !4
  %9 = icmp ne ptr %8, null
  br i1 %9, label %10, label %43

10:                                               ; preds = %7
  %11 = load ptr, ptr %3, align 8, !tbaa !4
  %12 = getelementptr inbounds nuw %struct.Curl_easy, ptr %11, i32 0, i32 15
  %13 = getelementptr inbounds nuw %struct.UserDefined, ptr %12, i32 0, i32 124
  %14 = load i64, ptr %13, align 2
  %15 = lshr i64 %14, 27
  %16 = and i64 %15, 1
  %17 = trunc i64 %16 to i32
  %18 = icmp ne i32 %17, 0
  br i1 %18, label %19, label %43

19:                                               ; preds = %10
  %20 = load ptr, ptr %3, align 8, !tbaa !4
  %21 = getelementptr inbounds nuw %struct.Curl_easy, ptr %20, i32 0, i32 19
  %22 = getelementptr inbounds nuw %struct.UrlState, ptr %21, i32 0, i32 47
  %23 = load ptr, ptr %22, align 8, !tbaa !89
  %24 = icmp ne ptr %23, null
  br i1 %24, label %25, label %33

25:                                               ; preds = %19
  %26 = load ptr, ptr %3, align 8, !tbaa !4
  %27 = getelementptr inbounds nuw %struct.Curl_easy, ptr %26, i32 0, i32 19
  %28 = getelementptr inbounds nuw %struct.UrlState, ptr %27, i32 0, i32 47
  %29 = load ptr, ptr %28, align 8, !tbaa !89
  %30 = getelementptr inbounds nuw %struct.curl_trc_feat, ptr %29, i32 0, i32 1
  %31 = load i32, ptr %30, align 8, !tbaa !90
  %32 = icmp sge i32 %31, 1
  br i1 %32, label %33, label %43

33:                                               ; preds = %25, %19
  call void @llvm.lifetime.start.p0(i64 24, ptr %5) #5
  %34 = getelementptr inbounds [1 x %struct.__va_list_tag], ptr %5, i64 0, i64 0
  call void @llvm.va_start.p0(ptr %34)
  %35 = load ptr, ptr %3, align 8, !tbaa !4
  %36 = load ptr, ptr %3, align 8, !tbaa !4
  %37 = getelementptr inbounds nuw %struct.Curl_easy, ptr %36, i32 0, i32 19
  %38 = getelementptr inbounds nuw %struct.UrlState, ptr %37, i32 0, i32 47
  %39 = load ptr, ptr %38, align 8, !tbaa !89
  %40 = load ptr, ptr %4, align 8, !tbaa !11
  %41 = getelementptr inbounds [1 x %struct.__va_list_tag], ptr %5, i64 0, i64 0
  call void @trc_infof(ptr noundef %35, ptr noundef %39, ptr noundef %40, ptr noundef %41)
  %42 = getelementptr inbounds [1 x %struct.__va_list_tag], ptr %5, i64 0, i64 0
  call void @llvm.va_end.p0(ptr %42)
  call void @llvm.lifetime.end.p0(i64 24, ptr %5) #5
  br label %43

43:                                               ; preds = %33, %25, %10, %7
  ret void
}